target datalayout = "e-m:e-p270:32:32-p271:32:32-p272:64:64-i64:64-i128:128-f80:128-n8:16:32:64-S128"
target triple = "x86_64-pc-linux-gnu"

%struct.lua_TValue = type { %union.Value, [1 x i32], i32 }
%union.Value = type { ptr }

; Function Attrs: mustprogress nounwind uwtable
define internal noundef i32 @_ZL11luauF_clampP9lua_StateP10lua_TValueS2_iS2_i(ptr noundef %0, ptr noundef %1, ptr noundef %2, i32 noundef %3, ptr noundef %4, i32 noundef %5) #0 {
  %7 = alloca i32, align 4
  %8 = alloca ptr, align 8
  %9 = alloca ptr, align 8
  %10 = alloca ptr, align 8
  %11 = alloca i32, align 4
  %12 = alloca ptr, align 8
  %13 = alloca i32, align 4
  %14 = alloca double, align 8
  %15 = alloca double, align 8
  %16 = alloca double, align 8
  %17 = alloca double, align 8
  %18 = alloca ptr, align 8
  %19 = alloca i32, align 4
  store ptr %0, ptr %8, align 8, !tbaa !4
  store ptr %1, ptr %9, align 8, !tbaa !9
  store ptr %2, ptr %10, align 8, !tbaa !9
  store i32 %3, ptr %11, align 4, !tbaa !11
  store ptr %4, ptr %12, align 8, !tbaa !9
  store i32 %5, ptr %13, align 4, !tbaa !11
  %20 = load i32, ptr %13, align 4, !tbaa !11
  %21 = icmp sge i32 %20, 3
  br i1 %21, label %22, label %84

22:                                               ; preds = %6
  %23 = load i32, ptr %11, align 4, !tbaa !11
  %24 = icmp sle i32 %23, 1
  br i1 %24, label %25, label %84

25:                                               ; preds = %22
  %26 = load ptr, ptr %10, align 8, !tbaa !9
  %27 = getelementptr inbounds nuw %struct.lua_TValue, ptr %26, i32 0, i32 2
  %28 = load i32, ptr %27, align 4, !tbaa !13
  %29 = icmp eq i32 %28, 3
  br i1 %29, label %30, label %84

30:                                               ; preds = %25
  %31 = load ptr, ptr %12, align 8, !tbaa !9
  %32 = getelementptr inbounds nuw %struct.lua_TValue, ptr %31, i32 0, i32 2
  %33 = load i32, ptr %32, align 4, !tbaa !13
  %34 = icmp eq i32 %33, 3
  br i1 %34, label %35, label %84

35:                                               ; preds = %30
  %36 = load ptr, ptr %12, align 8, !tbaa !9
  %37 = getelementptr inbounds %struct.lua_TValue, ptr %36, i64 1
  %38 = getelementptr inbounds nuw %struct.lua_TValue, ptr %37, i32 0, i32 2
  %39 = load i32, ptr %38, align 4, !tbaa !13
  %40 = icmp eq i32 %39, 3
  br i1 %40, label %41, label %84

41:                                               ; preds = %35
  call void @llvm.lifetime.start.p0(i64 8, ptr %14) #17
  %42 = load ptr, ptr %10, align 8, !tbaa !9
  %43 = getelementptr inbounds nuw %struct.lua_TValue, ptr %42, i32 0, i32 0
  %44 = load double, ptr %43, align 8, !tbaa !15
  store double %44, ptr %14, align 8, !tbaa !16
  call void @llvm.lifetime.start.p0(i64 8, ptr %15) #17
  %45 = load ptr, ptr %12, align 8, !tbaa !9
  %46 = getelementptr inbounds nuw %struct.lua_TValue, ptr %45, i32 0, i32 0
  %47 = load double, ptr %46, align 8, !tbaa !15
  store double %47, ptr %15, align 8, !tbaa !16
  call void @llvm.lifetime.start.p0(i64 8, ptr %16) #17
  %48 = load ptr, ptr %12, align 8, !tbaa !9
  %49 = getelementptr inbounds %struct.lua_TValue, ptr %48, i64 1
  %50 = getelementptr inbounds nuw %struct.lua_TValue, ptr %49, i32 0, i32 0
  %51 = load double, ptr %50, align 8, !tbaa !15
  store double %51, ptr %16, align 8, !tbaa !16
  %52 = load double, ptr %15, align 8, !tbaa !16
  %53 = load double, ptr %16, align 8, !tbaa !16
  %54 = fcmp ole double %52, %53
  br i1 %54, label %55, label %80

55:                                               ; preds = %41
  call void @llvm.lifetime.start.p0(i64 8, ptr %17) #17
  %56 = load double, ptr %14, align 8, !tbaa !16
  %57 = load double, ptr %15, align 8, !tbaa !16
  %58 = fcmp olt double %56, %57
  br i1 %58, label %59, label %61

59:                                               ; preds = %55
  %60 = load double, ptr %15, align 8, !tbaa !16
  br label %63

61:                                               ; preds = %55
  %62 = load double, ptr %14, align 8, !tbaa !16
  br label %63

63:                                               ; preds = %61, %59
  %64 = phi double [ %60, %59 ], [ %62, %61 ]
  store double %64, ptr %17, align 8, !tbaa !16
  %65 = load double, ptr %17, align 8, !tbaa !16
  %66 = load double, ptr %16, align 8, !tbaa !16
  %67 = fcmp ogt double %65, %66
  br i1 %67, label %68, label %70

68:                                               ; preds = %63
  %69 = load double, ptr %16, align 8, !tbaa !16
  br label %72

70:                                               ; preds = %63
  %71 = load double, ptr %17, align 8, !tbaa !16
  br label %72

72:                                               ; preds = %70, %68
  %73 = phi double [ %69, %68 ], [ %71, %70 ]
  store double %73, ptr %17, align 8, !tbaa !16
  call void @llvm.lifetime.start.p0(i64 8, ptr %18) #17
  %74 = load ptr, ptr %9, align 8, !tbaa !9
  store ptr %74, ptr %18, align 8, !tbaa !9
  %75 = load double, ptr %17, align 8, !tbaa !16
  %76 = load ptr, ptr %18, align 8, !tbaa !9
  %77 = getelementptr inbounds nuw %struct.lua_TValue, ptr %76, i32 0, i32 0
  store double %75, ptr %77, align 8, !tbaa !15
  %78 = load ptr, ptr %18, align 8, !tbaa !9
  %79 = getelementptr inbounds nuw %struct.lua_TValue, ptr %78, i32 0, i32 2
  store i32 3, ptr %79, align 4, !tbaa !13
  call void @llvm.lifetime.end.p0(i64 8, ptr %18) #17
  store i32 1, ptr %7, align 4
  store i32 1, ptr %19, align 4
  call void @llvm.lifetime.end.p0(i64 8, ptr %17) #17
  br label %81

80:                                               ; preds = %41
  store i32 0, ptr %19, align 4
  br label %81

81:                                               ; preds = %80, %72
  call void @llvm.lifetime.end.p0(i64 8, ptr %16) #17
  call void @llvm.lifetime.end.p0(i64 8, ptr %15) #17
  call void @llvm.lifetime.end.p0(i64 8, ptr %14) #17
  %82 = load i32, ptr %19, align 4
  switch i32 %82, label %87 [
    i32 0, label %83
    i32 1, label %85
  ]

83:                                               ; preds = %81
  br label %84

84:                                               ; preds = %83, %35, %30, %25, %22, %6
  store i32 -1, ptr %7, align 4
  br label %85

85:                                               ; preds = %84, %81
  %86 = load i32, ptr %7, align 4
  ret i32 %86

87:                                               ; preds = %81
  unreachable
}